; Function Attrs: nounwind uwtable
define internal i32 @luaB_pcall(ptr noundef %0) #0 {
  tail call void @luaL_checkany(ptr noundef %0, i32 noundef 1) #9
  tail call void @lua_pushboolean(ptr noundef %0, i32 noundef 1) #9
  tail call void @lua_rotate(ptr noundef %0, i32 noundef 1, i32 noundef 1) #9
  %2 = tail call i32 @lua_gettop(ptr noundef %0) #9
  %3 = add nsw i32 %2, -2
  %4 = tail call i32 @lua_pcallk(ptr noundef %0, i32 noundef %3, i32 noundef -1, i32 noundef 0, i64 noundef 0, ptr noundef nonnull @finishpcall) #9
  %5 = icmp ugt i32 %4, 1
  br i1 %5, label %6, label %7, !prof !4

6:                                                ; preds = %1
  tail call void @lua_pushboolean(ptr noundef %0, i32 noundef 0) #9
  tail call void @lua_pushvalue(ptr noundef %0, i32 noundef -2) #9
  br label %finishpcall.exit

7:                                                ; preds = %1
  %8 = tail call i32 @lua_gettop(ptr noundef %0) #9
  br label %finishpcall.exit

finishpcall.exit:                                 ; preds = %6, %7
  %.0.i = phi i32 [ 2, %6 ], [ %8, %7 ]
  ret i32 %.0.i
}